; Function Attrs: mustprogress uwtable
define hidden void @_ZN12seq_rewriter13mk_seq_concatEP4exprS1_(ptr dead_on_unwind noalias nonnull writable sret(%class.obj_ref) align 8 initializes((0, 16)) %0, ptr noundef nonnull align 8 dereferenceable(497) %1, ptr noundef %2, ptr noundef %3) local_unnamed_addr #3 align 2 personality ptr @__gxx_personality_v0 {
  %5 = alloca [2 x ptr], align 16
  %6 = load ptr, ptr %1, align 8, !tbaa !85
  store ptr null, ptr %0, align 8, !tbaa !11
  %7 = getelementptr inbounds nuw i8, ptr %0, i64 8
  store ptr %6, ptr %7, align 8, !tbaa !12
  %8 = invoke noundef i32 @_ZN12seq_rewriter13mk_seq_concatEP4exprS1_R7obj_refIS0_11ast_managerE(ptr noundef nonnull align 8 dereferenceable(497) %1, ptr noundef %2, ptr noundef %3, ptr noundef nonnull align 8 dereferenceable(16) %0)
          to label %9 unwind label %31

9:                                                ; preds = %4
  %10 = icmp eq i32 %8, 5
  br i1 %10, label %11, label %33

11:                                               ; preds = %9
  call void @llvm.lifetime.start.p0(i64 16, ptr nonnull %5) #28
  store ptr %2, ptr %5, align 16, !tbaa !3
  %12 = getelementptr inbounds nuw i8, ptr %5, i64 8
  store ptr %3, ptr %12, align 8, !tbaa !3
  %13 = getelementptr inbounds nuw i8, ptr %1, i64 40
  %14 = load ptr, ptr %13, align 8, !tbaa !335
  %15 = getelementptr inbounds nuw i8, ptr %1, i64 48
  %16 = load i32, ptr %15, align 8, !tbaa !86
  %17 = invoke noundef ptr @_ZN11ast_manager6mk_appEiijPKP4expr(ptr noundef nonnull align 8 dereferenceable(976) %14, i32 noundef %16, i32 noundef 2, i32 noundef 2, ptr noundef nonnull %5)
          to label %18 unwind label %31

18:                                               ; preds = %11
  call void @llvm.lifetime.end.p0(i64 16, ptr nonnull %5) #28
  %.not.i = icmp eq ptr %17, null
  br i1 %.not.i, label %22, label %_ZN11ast_manager7inc_refEP3ast.exit.i

_ZN11ast_manager7inc_refEP3ast.exit.i:            ; preds = %18
  %19 = getelementptr inbounds nuw i8, ptr %17, i64 8
  %20 = load i32, ptr %19, align 4, !tbaa !99
  %21 = add i32 %20, 1
  store i32 %21, ptr %19, align 4, !tbaa !99
  br label %22

22:                                               ; preds = %_ZN11ast_manager7inc_refEP3ast.exit.i, %18
  %23 = load ptr, ptr %0, align 8, !tbaa !11
  %.not.i4.i = icmp eq ptr %23, null
  br i1 %.not.i4.i, label %_ZN7obj_refI4expr11ast_managerEaSEPS0_.exit, label %24

24:                                               ; preds = %22
  %25 = load ptr, ptr %7, align 8, !tbaa !8
  %26 = getelementptr inbounds nuw i8, ptr %23, i64 8
  %27 = load i32, ptr %26, align 4, !tbaa !99
  %28 = add i32 %27, -1
  store i32 %28, ptr %26, align 4, !tbaa !99
  %29 = icmp eq i32 %28, 0
  br i1 %29, label %30, label %_ZN7obj_refI4expr11ast_managerEaSEPS0_.exit

30:                                               ; preds = %24
  invoke void @_ZN11ast_manager11delete_nodeEP3ast(ptr noundef nonnull align 8 dereferenceable(976) %25, ptr noundef nonnull %23)
          to label %_ZN7obj_refI4expr11ast_managerEaSEPS0_.exit unwind label %31

_ZN7obj_refI4expr11ast_managerEaSEPS0_.exit:      ; preds = %30, %22, %24
  store ptr %17, ptr %0, align 8, !tbaa !11
  br label %33

31:                                               ; preds = %30, %11, %4
  %32 = landingpad { ptr, i32 }
          cleanup
  call void @_ZN7obj_refI4expr11ast_managerED2Ev(ptr noundef nonnull align 8 dereferenceable(16) %0) #28
  resume { ptr, i32 } %32

33:                                               ; preds = %_ZN7obj_refI4expr11ast_managerEaSEPS0_.exit, %9
  ret void
}